ccopy_reg
_reconstructor
p0
(cnltk.classify.naivebayes
NaiveBayesClassifier
p1
c__builtin__
object
p2
Ntp3
Rp4
(dp5
S'_labels'
p6
(lp7
S'neg'
p8
aS'pos'
p9
asS'_feature_probdist'
p10
(dp11
(g9
S'\xa0'
p12
tp13
g0
(cnltk.probability
ELEProbDist
p14
g2
Ntp15
Rp16
(dp17
S'_gamma'
p18
F0.5
sS'_N'
p19
I3995
sS'_freqdist'
p20
cnltk.probability
FreqDist
p21
((dp22
I01
I2
sNI3993
stp23
Rp24
sS'_bins'
p25
I2
sS'_divisor'
p26
F3996.0
sbs(g9
S'6'
p27
tp28
g0
(g14
g2
Ntp29
Rp30
(dp31
g18
F0.5
sg19
I3995
sg20
g21
((dp32
I01
I5
sNI3990
stp33
Rp34
sg25
I2
sg26
F3996.0
sbs(g8
S'o'
p35
tp36
g0
(g14
g2
Ntp37
Rp38
(dp39
g18
F0.5
sg19
I3091
sg20
g21
((dp40
I01
I3064
sNI27
stp41
Rp42
sg25
I2
sg26
F3092.0
sbs(g8
g12
tp43
g0
(g14
g2
Ntp44
Rp45
(dp46
g18
F0.5
sg19
I3091
sg20
g21
((dp47
I01
I1
sNI3090
stp48
Rp49
sg25
I2
sg26
F3092.0
sbs(g9
S'/'
p50
tp51
g0
(g14
g2
Ntp52
Rp53
(dp54
g18
F0.5
sg19
I3995
sg20
g21
((dp55
I01
I88
sNI3907
stp56
Rp57
sg25
I2
sg26
F3996.0
sbs(g8
S'T'
p58
tp59
g0
(g14
g2
Ntp60
Rp61
(dp62
g18
F0.5
sg19
I3091
sg20
g21
((dp63
I01
I773
sNI2318
stp64
Rp65
sg25
I2
sg26
F3092.0
sbs(g8
S'7'
p66
tp67
g0
(g14
g2
Ntp68
Rp69
(dp70
g18
F0.5
sg19
I3091
sg20
g21
((dp71
I01
I3
sNI3088
stp72
Rp73
sg25
I2
sg26
F3092.0
sbs(g9
S'$'
p74
tp75
g0
(g14
g2
Ntp76
Rp77
(dp78
g18
F0.5
sg19
I3995
sg20
g21
((dp79
NI3995
stp80
Rp81
sg25
I2
sg26
F3996.0
sbs(g8
S']'
p82
tp83
g0
(g14
g2
Ntp84
Rp85
(dp86
g18
F0.5
sg19
I3091
sg20
g21
((dp87
I01
I2
sNI3089
stp88
Rp89
sg25
I2
sg26
F3092.0
sbs(g8
S'<'
p90
tp91
g0
(g14
g2
Ntp92
Rp93
(dp94
g18
F0.5
sg19
I3091
sg20
g21
((dp95
I01
I3
sNI3088
stp96
Rp97
sg25
I2
sg26
F3092.0
sbs(g9
g82
tp98
g0
(g14
g2
Ntp99
Rp100
(dp101
g18
F0.5
sg19
I3995
sg20
g21
((dp102
I01
I7
sNI3988
stp103
Rp104
sg25
I2
sg26
F3996.0
sbs(g8
S'J'
p105
tp106
g0
(g14
g2
Ntp107
Rp108
(dp109
g18
F0.5
sg19
I3091
sg20
g21
((dp110
I01
I17
sNI3074
stp111
Rp112
sg25
I2
sg26
F3092.0
sbs(g9
S'R'
p113
tp114
g0
(g14
g2
Ntp115
Rp116
(dp117
g18
F0.5
sg19
I3995
sg20
g21
((dp118
I01
I117
sNI3878
stp119
Rp120
sg25
I2
sg26
F3996.0
sbs(g9
S'K'
p121
tp122
g0
(g14
g2
Ntp123
Rp124
(dp125
g18
F0.5
sg19
I3995
sg20
g21
((dp126
I01
I102
sNI3893
stp127
Rp128
sg25
I2
sg26
F3996.0
sbs(g9
S'@'
p129
tp130
g0
(g14
g2
Ntp131
Rp132
(dp133
g18
F0.5
sg19
I3995
sg20
g21
((dp134
I01
I1
sNI3994
stp135
Rp136
sg25
I2
sg26
F3996.0
sbs(g9
S'y'
p137
tp138
g0
(g14
g2
Ntp139
Rp140
(dp141
g18
F0.5
sg19
I3995
sg20
g21
((dp142
I01
I1839
sNI2156
stp143
Rp144
sg25
I2
sg26
F3996.0
sbs(g9
S'n'
p145
tp146
g0
(g14
g2
Ntp147
Rp148
(dp149
g18
F0.5
sg19
I3995
sg20
g21
((dp150
I01
I3425
sNI570
stp151
Rp152
sg25
I2
sg26
F3996.0
sbs(g8
S'v'
p153
tp154
g0
(g14
g2
Ntp155
Rp156
(dp157
g18
F0.5
sg19
I3091
sg20
g21
((dp158
I01
I1141
sNI1950
stp159
Rp160
sg25
I2
sg26
F3092.0
sbs(g9
S'g'
p161
tp162
g0
(g14
g2
Ntp163
Rp164
(dp165
g18
F0.5
sg19
I3995
sg20
g21
((dp166
I01
I1001
sNI2994
stp167
Rp168
sg25
I2
sg26
F3996.0
sbs(g9
S'?'
p169
tp170
g0
(g14
g2
Ntp171
Rp172
(dp173
g18
F0.5
sg19
I3995
sg20
g21
((dp174
I01
I3
sNI3992
stp175
Rp176
sg25
I2
sg26
F3996.0
sbs(g8
S'd'
p177
tp178
g0
(g14
g2
Ntp179
Rp180
(dp181
g18
F0.5
sg19
I3091
sg20
g21
((dp182
I01
I2422
sNI669
stp183
Rp184
sg25
I2
sg26
F3092.0
sbs(g9
S'4'
p185
tp186
g0
(g14
g2
Ntp187
Rp188
(dp189
g18
F0.5
sg19
I3995
sg20
g21
((dp190
I01
I3
sNI3992
stp191
Rp192
sg25
I2
sg26
F3996.0
sbs(g8
S'm'
p193
tp194
g0
(g14
g2
Ntp195
Rp196
(dp197
g18
F0.5
sg19
I3091
sg20
g21
((dp198
I01
I1567
sNI1524
stp199
Rp200
sg25
I2
sg26
F3092.0
sbs(g8
S'\xa6'
p201
tp202
g0
(g14
g2
Ntp203
Rp204
(dp205
g18
F0.5
sg19
I3091
sg20
g21
((dp206
I01
I1
sNI3090
stp207
Rp208
sg25
I2
sg26
F3092.0
sbs(g9
S'-'
p209
tp210
g0
(g14
g2
Ntp211
Rp212
(dp213
g18
F0.5
sg19
I3995
sg20
g21
((dp214
I01
I43
sNI3952
stp215
Rp216
sg25
I2
sg26
F3996.0
sbs(g8
S'Z'
p217
tp218
g0
(g14
g2
Ntp219
Rp220
(dp221
g18
F0.5
sg19
I3091
sg20
g21
((dp222
I01
I81
sNI3010
stp223
Rp224
sg25
I2
sg26
F3092.0
sbs(g9
S'\x83'
p225
tp226
g0
(g14
g2
Ntp227
Rp228
(dp229
g18
F0.5
sg19
I3995
sg20
g21
((dp230
NI3995
stp231
Rp232
sg25
I2
sg26
F3996.0
sbs(g8
S'5'
p233
tp234
g0
(g14
g2
Ntp235
Rp236
(dp237
g18
F0.5
sg19
I3091
sg20
g21
((dp238
I01
I81
sNI3010
stp239
Rp240
sg25
I2
sg26
F3092.0
sbs(g9
S'"'
p241
tp242
g0
(g14
g2
Ntp243
Rp244
(dp245
g18
F0.5
sg19
I3995
sg20
g21
((dp246
I01
I272
sNI3723
stp247
Rp248
sg25
I2
sg26
F3996.0
sbs(g8
S'C'
p249
tp250
g0
(g14
g2
Ntp251
Rp252
(dp253
g18
F0.5
sg19
I3091
sg20
g21
((dp254
I01
I823
sNI2268
stp255
Rp256
sg25
I2
sg26
F3092.0
sbs(g8
g241
tp257
g0
(g14
g2
Ntp258
Rp259
(dp260
g18
F0.5
sg19
I3091
sg20
g21
((dp261
I01
I43
sNI3048
stp262
Rp263
sg25
I2
sg26
F3092.0
sbs(g9
S'['
p264
tp265
g0
(g14
g2
Ntp266
Rp267
(dp268
g18
F0.5
sg19
I3995
sg20
g21
((dp269
I01
I6
sNI3989
stp270
Rp271
sg25
I2
sg26
F3996.0
sbs(g8
S'H'
p272
tp273
g0
(g14
g2
Ntp274
Rp275
(dp276
g18
F0.5
sg19
I3091
sg20
g21
((dp277
I01
I1041
sNI2050
stp278
Rp279
sg25
I2
sg26
F3092.0
sbs(g8
S'+'
p280
tp281
g0
(g14
g2
Ntp282
Rp283
(dp284
g18
F0.5
sg19
I3091
sg20
g21
((dp285
I01
I1
sNI3090
stp286
Rp287
sg25
I2
sg26
F3092.0
sbs(g9
S'P'
p288
tp289
g0
(g14
g2
Ntp290
Rp291
(dp292
g18
F0.5
sg19
I3995
sg20
g21
((dp293
I01
I1019
sNI2976
stp294
Rp295
sg25
I2
sg26
F3996.0
sbs(g9
S'I'
p296
tp297
g0
(g14
g2
Ntp298
Rp299
(dp300
g18
F0.5
sg19
I3995
sg20
g21
((dp301
I01
I2401
sNI1594
stp302
Rp303
sg25
I2
sg26
F3996.0
sbs(g9
S'\x92'
p304
tp305
g0
(g14
g2
Ntp306
Rp307
(dp308
g18
F0.5
sg19
I3995
sg20
g21
((dp309
I01
I1
sNI3994
stp310
Rp311
sg25
I2
sg26
F3996.0
sbs(g9
S'~'
p312
tp313
g0
(g14
g2
Ntp314
Rp315
(dp316
g18
F0.5
sg19
I3995
sg20
g21
((dp317
I01
I2
sNI3993
stp318
Rp319
sg25
I2
sg26
F3996.0
sbs(g9
S'w'
p320
tp321
g0
(g14
g2
Ntp322
Rp323
(dp324
g18
F0.5
sg19
I3995
sg20
g21
((dp325
I01
I2106
sNI1889
stp326
Rp327
sg25
I2
sg26
F3996.0
sbs(g9
S'\x80'
p328
tp329
g0
(g14
g2
Ntp330
Rp331
(dp332
g18
F0.5
sg19
I3995
sg20
g21
((dp333
I01
I8
sNI3987
stp334
Rp335
sg25
I2
sg26
F3996.0
sbs(g9
S'l'
p336
tp337
g0
(g14
g2
Ntp338
Rp339
(dp340
g18
F0.5
sg19
I3995
sg20
g21
((dp341
I01
I3105
sNI890
stp342
Rp343
sg25
I2
sg26
F3996.0
sbs(g8
S't'
p344
tp345
g0
(g14
g2
Ntp346
Rp347
(dp348
g18
F0.5
sg19
I3091
sg20
g21
((dp349
I01
I2685
sNI406
stp350
Rp351
sg25
I2
sg26
F3092.0
sbs(g9
S'e'
p352
tp353
g0
(g14
g2
Ntp354
Rp355
(dp356
g18
F0.5
sg19
I3995
sg20
g21
((dp357
I01
I3892
sNI103
stp358
Rp359
sg25
I2
sg26
F3996.0
sbs(g9
S'='
p360
tp361
g0
(g14
g2
Ntp362
Rp363
(dp364
g18
F0.5
sg19
I3995
sg20
g21
((dp365
I01
I6
sNI3989
stp366
Rp367
sg25
I2
sg26
F3996.0
sbs(g8
S'j'
p368
tp369
g0
(g14
g2
Ntp370
Rp371
(dp372
g18
F0.5
sg19
I3091
sg20
g21
((dp373
I01
I361
sNI2730
stp374
Rp375
sg25
I2
sg26
F3092.0
sbs(g9
S'\x93'
p376
tp377
g0
(g14
g2
Ntp378
Rp379
(dp380
g18
F0.5
sg19
I3995
sg20
g21
((dp381
I01
I1
sNI3994
stp382
Rp383
sg25
I2
sg26
F3996.0
sbs(g9
S'2'
p384
tp385
g0
(g14
g2
Ntp386
Rp387
(dp388
g18
F0.5
sg19
I3995
sg20
g21
((dp389
I01
I91
sNI3904
stp390
Rp391
sg25
I2
sg26
F3996.0
sbs(g8
S'S'
p392
tp393
g0
(g14
g2
Ntp394
Rp395
(dp396
g18
F0.5
sg19
I3091
sg20
g21
((dp397
I01
I317
sNI2774
stp398
Rp399
sg25
I2
sg26
F3092.0
sbs(g8
g384
tp400
g0
(g14
g2
Ntp401
Rp402
(dp403
g18
F0.5
sg19
I3091
sg20
g21
((dp404
I01
I98
sNI2993
stp405
Rp406
sg25
I2
sg26
F3092.0
sbs(g9
g280
tp407
g0
(g14
g2
Ntp408
Rp409
(dp410
g18
F0.5
sg19
I3995
sg20
g21
((dp411
I01
I1
sNI3994
stp412
Rp413
sg25
I2
sg26
F3996.0
sbs(g8
S'X'
p414
tp415
g0
(g14
g2
Ntp416
Rp417
(dp418
g18
F0.5
sg19
I3091
sg20
g21
((dp419
I01
I4
sNI3087
stp420
Rp421
sg25
I2
sg26
F3092.0
sbs(g8
S';'
p422
tp423
g0
(g14
g2
Ntp424
Rp425
(dp426
g18
F0.5
sg19
I3091
sg20
g21
((dp427
I01
I2
sNI3089
stp428
Rp429
sg25
I2
sg26
F3092.0
sbs(g9
S' '
p430
tp431
g0
(g14
g2
Ntp432
Rp433
(dp434
g18
F0.5
sg19
I3995
sg20
g21
((dp435
I01
I3995
stp436
Rp437
sg25
I1
sg26
F3995.5
sbs(g8
S'A'
p438
tp439
g0
(g14
g2
Ntp440
Rp441
(dp442
g18
F0.5
sg19
I3091
sg20
g21
((dp443
I01
I342
sNI2749
stp444
Rp445
sg25
I2
sg26
F3092.0
sbs(g8
S'\xef'
p446
tp447
g0
(g14
g2
Ntp448
Rp449
(dp450
g18
F0.5
sg19
I3091
sg20
g21
((dp451
NI3091
stp452
Rp453
sg25
I2
sg26
F3092.0
sbs(g8
g430
tp454
g0
(g14
g2
Ntp455
Rp456
(dp457
g18
F0.5
sg19
I3091
sg20
g21
((dp458
I01
I3091
stp459
Rp460
sg25
I1
sg26
F3091.5
sbs(g9
S'Y'
p461
tp462
g0
(g14
g2
Ntp463
Rp464
(dp465
g18
F0.5
sg19
I3995
sg20
g21
((dp466
I01
I96
sNI3899
stp467
Rp468
sg25
I2
sg26
F3996.0
sbs(g8
S'N'
p469
tp470
g0
(g14
g2
Ntp471
Rp472
(dp473
g18
F0.5
sg19
I3091
sg20
g21
((dp474
I01
I127
sNI2964
stp475
Rp476
sg25
I2
sg26
F3092.0
sbs(g8
S')'
p477
tp478
g0
(g14
g2
Ntp479
Rp480
(dp481
g18
F0.5
sg19
I3091
sg20
g21
((dp482
I01
I12
sNI3079
stp483
Rp484
sg25
I2
sg26
F3092.0
sbs(g9
g469
tp485
g0
(g14
g2
Ntp486
Rp487
(dp488
g18
F0.5
sg19
I3995
sg20
g21
((dp489
I01
I210
sNI3785
stp490
Rp491
sg25
I2
sg26
F3996.0
sbs(g9
S'G'
p492
tp493
g0
(g14
g2
Ntp494
Rp495
(dp496
g18
F0.5
sg19
I3995
sg20
g21
((dp497
I01
I103
sNI3892
stp498
Rp499
sg25
I2
sg26
F3996.0
sbs(g9
S'u'
p500
tp501
g0
(g14
g2
Ntp502
Rp503
(dp504
g18
F0.5
sg19
I3995
sg20
g21
((dp505
I01
I2041
sNI1954
stp506
Rp507
sg25
I2
sg26
F3996.0
sbs(g9
g368
tp508
g0
(g14
g2
Ntp509
Rp510
(dp511
g18
F0.5
sg19
I3995
sg20
g21
((dp512
I01
I128
sNI3867
stp513
Rp514
sg25
I2
sg26
F3996.0
sbs(g8
S'z'
p515
tp516
g0
(g14
g2
Ntp517
Rp518
(dp519
g18
F0.5
sg19
I3091
sg20
g21
((dp520
I01
I173
sNI2918
stp521
Rp522
sg25
I2
sg26
F3092.0
sbs(g9
S'c'
p523
tp524
g0
(g14
g2
Ntp525
Rp526
(dp527
g18
F0.5
sg19
I3995
sg20
g21
((dp528
I01
I2957
sNI1038
stp529
Rp530
sg25
I2
sg26
F3996.0
sbs(g8
g523
tp531
g0
(g14
g2
Ntp532
Rp533
(dp534
g18
F0.5
sg19
I3091
sg20
g21
((dp535
I01
I2868
sNI223
stp536
Rp537
sg25
I2
sg26
F3092.0
sbs(g8
S'\xc2'
p538
tp539
g0
(g14
g2
Ntp540
Rp541
(dp542
g18
F0.5
sg19
I3091
sg20
g21
((dp543
I01
I4
sNI3087
stp544
Rp545
sg25
I2
sg26
F3092.0
sbs(g9
g422
tp546
g0
(g14
g2
Ntp547
Rp548
(dp549
g18
F0.5
sg19
I3995
sg20
g21
((dp550
I01
I1
sNI3994
stp551
Rp552
sg25
I2
sg26
F3996.0
sbs(g8
S'h'
p553
tp554
g0
(g14
g2
Ntp555
Rp556
(dp557
g18
F0.5
sg19
I3091
sg20
g21
((dp558
I01
I2274
sNI817
stp559
Rp560
sg25
I2
sg26
F3092.0
sbs(g9
S'0'
p561
tp562
g0
(g14
g2
Ntp563
Rp564
(dp565
g18
F0.5
sg19
I3995
sg20
g21
((dp566
I01
I6
sNI3989
stp567
Rp568
sg25
I2
sg26
F3996.0
sbs(g8
S'Q'
p569
tp570
g0
(g14
g2
Ntp571
Rp572
(dp573
g18
F0.5
sg19
I3091
sg20
g21
((dp574
I01
I2
sNI3089
stp575
Rp576
sg25
I2
sg26
F3092.0
sbs(g8
S'\xaa'
p577
tp578
g0
(g14
g2
Ntp579
Rp580
(dp581
g18
F0.5
sg19
I3091
sg20
g21
((dp582
I01
I1
sNI3090
stp583
Rp584
sg25
I2
sg26
F3092.0
sbs(g8
g561
tp585
g0
(g14
g2
Ntp586
Rp587
(dp588
g18
F0.5
sg19
I3091
sg20
g21
((dp589
I01
I8
sNI3083
stp590
Rp591
sg25
I2
sg26
F3092.0
sbs(g9
g477
tp592
g0
(g14
g2
Ntp593
Rp594
(dp595
g18
F0.5
sg19
I3995
sg20
g21
((dp596
I01
I30
sNI3965
stp597
Rp598
sg25
I2
sg26
F3996.0
sbs(g8
S'^'
p599
tp600
g0
(g14
g2
Ntp601
Rp602
(dp603
g18
F0.5
sg19
I3091
sg20
g21
((dp604
I01
I1
sNI3090
stp605
Rp606
sg25
I2
sg26
F3092.0
sbs(g9
S'\xbf'
p607
tp608
g0
(g14
g2
Ntp609
Rp610
(dp611
g18
F0.5
sg19
I3995
sg20
g21
((dp612
I01
I2
sNI3993
stp613
Rp614
sg25
I2
sg26
F3996.0
sbs(g8
S'9'
p615
tp616
g0
(g14
g2
Ntp617
Rp618
(dp619
g18
F0.5
sg19
I3091
sg20
g21
((dp620
I01
I2
sNI3089
stp621
Rp622
sg25
I2
sg26
F3092.0
sbs(g9
g599
tp623
g0
(g14
g2
Ntp624
Rp625
(dp626
g18
F0.5
sg19
I3995
sg20
g21
((dp627
NI3995
stp628
Rp629
sg25
I2
sg26
F3996.0
sbs(g8
g492
tp630
g0
(g14
g2
Ntp631
Rp632
(dp633
g18
F0.5
sg19
I3091
sg20
g21
((dp634
I01
I104
sNI2987
stp635
Rp636
sg25
I2
sg26
F3092.0
sbs(g8
S'\x98'
p637
tp638
g0
(g14
g2
Ntp639
Rp640
(dp641
g18
F0.5
sg19
I3091
sg20
g21
((dp642
NI3091
stp643
Rp644
sg25
I2
sg26
F3092.0
sbs(g8
S'&'
p645
tp646
g0
(g14
g2
Ntp647
Rp648
(dp649
g18
F0.5
sg19
I3091
sg20
g21
((dp650
I01
I1
sNI3090
stp651
Rp652
sg25
I2
sg26
F3092.0
sbs(g9
S'W'
p653
tp654
g0
(g14
g2
Ntp655
Rp656
(dp657
g18
F0.5
sg19
I3995
sg20
g21
((dp658
I01
I469
sNI3526
stp659
Rp660
sg25
I2
sg26
F3996.0
sbs(g8
S'L'
p661
tp662
g0
(g14
g2
Ntp663
Rp664
(dp665
g18
F0.5
sg19
I3091
sg20
g21
((dp666
I01
I197
sNI2894
stp667
Rp668
sg25
I2
sg26
F3092.0
sbs(g8
g50
tp669
g0
(g14
g2
Ntp670
Rp671
(dp672
g18
F0.5
sg19
I3091
sg20
g21
((dp673
I01
I90
sNI3001
stp674
Rp675
sg25
I2
sg26
F3092.0
sbs(g9
g661
tp676
g0
(g14
g2
Ntp677
Rp678
(dp679
g18
F0.5
sg19
I3995
sg20
g21
((dp680
I01
I402
sNI3593
stp681
Rp682
sg25
I2
sg26
F3996.0
sbs(g8
S'\xb5'
p683
tp684
g0
(g14
g2
Ntp685
Rp686
(dp687
g18
F0.5
sg19
I3091
sg20
g21
((dp688
I01
I1
sNI3090
stp689
Rp690
sg25
I2
sg26
F3092.0
sbs(g8
S'\xc3'
p691
tp692
g0
(g14
g2
Ntp693
Rp694
(dp695
g18
F0.5
sg19
I3091
sg20
g21
((dp696
I01
I2
sNI3089
stp697
Rp698
sg25
I2
sg26
F3092.0
sbs(g9
S'E'
p699
tp700
g0
(g14
g2
Ntp701
Rp702
(dp703
g18
F0.5
sg19
I3995
sg20
g21
((dp704
I01
I750
sNI3245
stp705
Rp706
sg25
I2
sg26
F3996.0
sbs(g9
g515
tp707
g0
(g14
g2
Ntp708
Rp709
(dp710
g18
F0.5
sg19
I3995
sg20
g21
((dp711
I01
I106
sNI3889
stp712
Rp713
sg25
I2
sg26
F3996.0
sbs(g9
S's'
p714
tp715
g0
(g14
g2
Ntp716
Rp717
(dp718
g18
F0.5
sg19
I3995
sg20
g21
((dp719
I01
I2857
sNI1138
stp720
Rp721
sg25
I2
sg26
F3996.0
sbs(g8
g714
tp722
g0
(g14
g2
Ntp723
Rp724
(dp725
g18
F0.5
sg19
I3091
sg20
g21
((dp726
I01
I2803
sNI288
stp727
Rp728
sg25
I2
sg26
F3092.0
sbs(g9
g553
tp729
g0
(g14
g2
Ntp730
Rp731
(dp732
g18
F0.5
sg19
I3995
sg20
g21
((dp733
I01
I2240
sNI1755
stp734
Rp735
sg25
I2
sg26
F3996.0
sbs(g8
S'\x99'
p736
tp737
g0
(g14
g2
Ntp738
Rp739
(dp740
g18
F0.5
sg19
I3091
sg20
g21
((dp741
I01
I82
sNI3009
stp742
Rp743
sg25
I2
sg26
F3092.0
sbs(g8
S'x'
p744
tp745
g0
(g14
g2
Ntp746
Rp747
(dp748
g18
F0.5
sg19
I3091
sg20
g21
((dp749
I01
I24
sNI3067
stp750
Rp751
sg25
I2
sg26
F3092.0
sbs(g9
S'a'
p752
tp753
g0
(g14
g2
Ntp754
Rp755
(dp756
g18
F0.5
sg19
I3995
sg20
g21
((dp757
I01
I3619
sNI376
stp758
Rp759
sg25
I2
sg26
F3996.0
sbs(g9
g577
tp760
g0
(g14
g2
Ntp761
Rp762
(dp763
g18
F0.5
sg19
I3995
sg20
g21
((dp764
NI3995
stp765
Rp766
sg25
I2
sg26
F3996.0
sbs(g8
g752
tp767
g0
(g14
g2
Ntp768
Rp769
(dp770
g18
F0.5
sg19
I3091
sg20
g21
((dp771
I01
I3045
sNI46
stp772
Rp773
sg25
I2
sg26
F3092.0
sbs(g9
g615
tp774
g0
(g14
g2
Ntp775
Rp776
(dp777
g18
F0.5
sg19
I3995
sg20
g21
((dp778
I01
I1
sNI3994
stp779
Rp780
sg25
I2
sg26
F3996.0
sbs(g8
g145
tp781
g0
(g14
g2
Ntp782
Rp783
(dp784
g18
F0.5
sg19
I3091
sg20
g21
((dp785
I01
I2749
sNI342
stp786
Rp787
sg25
I2
sg26
F3092.0
sbs(g9
S'.'
p788
tp789
g0
(g14
g2
Ntp790
Rp791
(dp792
g18
F0.5
sg19
I3995
sg20
g21
((dp793
I01
I3327
sNI668
stp794
Rp795
sg25
I2
sg26
F3996.0
sbs(g8
g653
tp796
g0
(g14
g2
Ntp797
Rp798
(dp799
g18
F0.5
sg19
I3091
sg20
g21
((dp800
I01
I43
sNI3048
stp801
Rp802
sg25
I2
sg26
F3092.0
sbs(g8
g27
tp803
g0
(g14
g2
Ntp804
Rp805
(dp806
g18
F0.5
sg19
I3091
sg20
g21
((dp807
I01
I1
sNI3090
stp808
Rp809
sg25
I2
sg26
F3092.0
sbs(g9
S"'"
p810
tp811
g0
(g14
g2
Ntp812
Rp813
(dp814
g18
F0.5
sg19
I3995
sg20
g21
((dp815
I01
I732
sNI3263
stp816
Rp817
sg25
I2
sg26
F3996.0
sbs(g8
S'\\'
p818
tp819
g0
(g14
g2
Ntp820
Rp821
(dp822
g18
F0.5
sg19
I3091
sg20
g21
((dp823
I01
I1
sNI3090
stp824
Rp825
sg25
I2
sg26
F3092.0
sbs(g9
S'\xbd'
p826
tp827
g0
(g14
g2
Ntp828
Rp829
(dp830
g18
F0.5
sg19
I3995
sg20
g21
((dp831
I01
I2
sNI3993
stp832
Rp833
sg25
I2
sg26
F3996.0
sbs(g8
g169
tp834
g0
(g14
g2
Ntp835
Rp836
(dp837
g18
F0.5
sg19
I3091
sg20
g21
((dp838
I01
I88
sNI3003
stp839
Rp840
sg25
I2
sg26
F3092.0
sbs(g9
g818
tp841
g0
(g14
g2
Ntp842
Rp843
(dp844
g18
F0.5
sg19
I3995
sg20
g21
((dp845
NI3995
stp846
Rp847
sg25
I2
sg26
F3996.0
sbs(g8
g699
tp848
g0
(g14
g2
Ntp849
Rp850
(dp851
g18
F0.5
sg19
I3091
sg20
g21
((dp852
I01
I227
sNI2864
stp853
Rp854
sg25
I2
sg26
F3092.0
sbs(g8
g74
tp855
g0
(g14
g2
Ntp856
Rp857
(dp858
g18
F0.5
sg19
I3091
sg20
g21
((dp859
I01
I1
sNI3090
stp860
Rp861
sg25
I2
sg26
F3092.0
sbs(g9
S'U'
p862
tp863
g0
(g14
g2
Ntp864
Rp865
(dp866
g18
F0.5
sg19
I3995
sg20
g21
((dp867
I01
I102
sNI3893
stp868
Rp869
sg25
I2
sg26
F3996.0
sbs(g8
g209
tp870
g0
(g14
g2
Ntp871
Rp872
(dp873
g18
F0.5
sg19
I3091
sg20
g21
((dp874
I01
I132
sNI2959
stp875
Rp876
sg25
I2
sg26
F3092.0
sbs(g9
g105
tp877
g0
(g14
g2
Ntp878
Rp879
(dp880
g18
F0.5
sg19
I3995
sg20
g21
((dp881
I01
I92
sNI3903
stp882
Rp883
sg25
I2
sg26
F3996.0
sbs(g9
g249
tp884
g0
(g14
g2
Ntp885
Rp886
(dp887
g18
F0.5
sg19
I3995
sg20
g21
((dp888
I01
I984
sNI3011
stp889
Rp890
sg25
I2
sg26
F3996.0
sbs(g9
S'\xe2'
p891
tp892
g0
(g14
g2
Ntp893
Rp894
(dp895
g18
F0.5
sg19
I3995
sg20
g21
((dp896
I01
I8
sNI3987
stp897
Rp898
sg25
I2
sg26
F3996.0
sbs(g9
g744
tp899
g0
(g14
g2
Ntp900
Rp901
(dp902
g18
F0.5
sg19
I3995
sg20
g21
((dp903
I01
I195
sNI3800
stp904
Rp905
sg25
I2
sg26
F3996.0
sbs(g8
S'\xa9'
p906
tp907
g0
(g14
g2
Ntp908
Rp909
(dp910
g18
F0.5
sg19
I3091
sg20
g21
((dp911
I01
I1
sNI3090
stp912
Rp913
sg25
I2
sg26
F3092.0
sbs(g8
g891
tp914
g0
(g14
g2
Ntp915
Rp916
(dp917
g18
F0.5
sg19
I3091
sg20
g21
((dp918
I01
I85
sNI3006
stp919
Rp920
sg25
I2
sg26
F3092.0
sbs(g9
S'q'
p921
tp922
g0
(g14
g2
Ntp923
Rp924
(dp925
g18
F0.5
sg19
I3995
sg20
g21
((dp926
I01
I14
sNI3981
stp927
Rp928
sg25
I2
sg26
F3996.0
sbs(g8
g921
tp929
g0
(g14
g2
Ntp930
Rp931
(dp932
g18
F0.5
sg19
I3091
sg20
g21
((dp933
I01
I92
sNI2999
stp934
Rp935
sg25
I2
sg26
F3092.0
sbs(g9
S'f'
p936
tp937
g0
(g14
g2
Ntp938
Rp939
(dp940
g18
F0.5
sg19
I3995
sg20
g21
((dp941
I01
I1053
sNI2942
stp942
Rp943
sg25
I2
sg26
F3996.0
sbs(g8
g312
tp944
g0
(g14
g2
Ntp945
Rp946
(dp947
g18
F0.5
sg19
I3091
sg20
g21
((dp948
I01
I1
sNI3090
stp949
Rp950
sg25
I2
sg26
F3092.0
sbs(g9
S'>'
p951
tp952
g0
(g14
g2
Ntp953
Rp954
(dp955
g18
F0.5
sg19
I3995
sg20
g21
((dp956
I01
I1
sNI3994
stp957
Rp958
sg25
I2
sg26
F3996.0
sbs(g8
g161
tp959
g0
(g14
g2
Ntp960
Rp961
(dp962
g18
F0.5
sg19
I3091
sg20
g21
((dp963
I01
I1627
sNI1464
stp964
Rp965
sg25
I2
sg26
F3092.0
sbs(g9
g66
tp966
g0
(g14
g2
Ntp967
Rp968
(dp969
g18
F0.5
sg19
I3995
sg20
g21
((dp970
I01
I7
sNI3988
stp971
Rp972
sg25
I2
sg26
F3996.0
sbs(g8
g336
tp973
g0
(g14
g2
Ntp974
Rp975
(dp976
g18
F0.5
sg19
I3091
sg20
g21
((dp977
I01
I1595
sNI1496
stp978
Rp979
sg25
I2
sg26
F3092.0
sbs(g9
S','
p980
tp981
g0
(g14
g2
Ntp982
Rp983
(dp984
g18
F0.5
sg19
I3995
sg20
g21
((dp985
I01
I958
sNI3037
stp986
Rp987
sg25
I2
sg26
F3996.0
sbs(g8
g862
tp988
g0
(g14
g2
Ntp989
Rp990
(dp991
g18
F0.5
sg19
I3091
sg20
g21
((dp992
I01
I208
sNI2883
stp993
Rp994
sg25
I2
sg26
F3092.0
sbs(g8
g185
tp995
g0
(g14
g2
Ntp996
Rp997
(dp998
g18
F0.5
sg19
I3091
sg20
g21
((dp999
I01
I2
sNI3089
stp1000
Rp1001
sg25
I2
sg26
F3092.0
sbs(g8
S'B'
p1002
tp1003
g0
(g14
g2
Ntp1004
Rp1005
(dp1006
g18
F0.5
sg19
I3091
sg20
g21
((dp1007
I01
I899
sNI2192
stp1008
Rp1009
sg25
I2
sg26
F3092.0
sbs(g8
g360
tp1010
g0
(g14
g2
Ntp1011
Rp1012
(dp1013
g18
F0.5
sg19
I3091
sg20
g21
((dp1014
I01
I85
sNI3006
stp1015
Rp1016
sg25
I2
sg26
F3092.0
sbs(g9
g217
tp1017
g0
(g14
g2
Ntp1018
Rp1019
(dp1020
g18
F0.5
sg19
I3995
sg20
g21
((dp1021
I01
I4
sNI3991
stp1022
Rp1023
sg25
I2
sg26
F3996.0
sbs(g8
g121
tp1024
g0
(g14
g2
Ntp1025
Rp1026
(dp1027
g18
F0.5
sg19
I3091
sg20
g21
((dp1028
I01
I207
sNI2884
stp1029
Rp1030
sg25
I2
sg26
F3092.0
sbs(g8
S'\x9c'
p1031
tp1032
g0
(g14
g2
Ntp1033
Rp1034
(dp1035
g18
F0.5
sg19
I3091
sg20
g21
((dp1036
I01
I3
sNI3088
stp1037
Rp1038
sg25
I2
sg26
F3092.0
sbs(g8
S'*'
p1039
tp1040
g0
(g14
g2
Ntp1041
Rp1042
(dp1043
g18
F0.5
sg19
I3091
sg20
g21
((dp1044
I01
I5
sNI3086
stp1045
Rp1046
sg25
I2
sg26
F3092.0
sbs(g9
g392
tp1047
g0
(g14
g2
Ntp1048
Rp1049
(dp1050
g18
F0.5
sg19
I3995
sg20
g21
((dp1051
I01
I558
sNI3437
stp1052
Rp1053
sg25
I2
sg26
F3996.0
sbs(g9
g1031
tp1054
g0
(g14
g2
Ntp1055
Rp1056
(dp1057
g18
F0.5
sg19
I3995
sg20
g21
((dp1058
NI3995
stp1059
Rp1060
sg25
I2
sg26
F3996.0
sbs(g9
g906
tp1061
g0
(g14
g2
Ntp1062
Rp1063
(dp1064
g18
F0.5
sg19
I3995
sg20
g21
((dp1065
I01
I1
sNI3994
stp1066
Rp1067
sg25
I2
sg26
F3996.0
sbs(g9
g272
tp1068
g0
(g14
g2
Ntp1069
Rp1070
(dp1071
g18
F0.5
sg19
I3995
sg20
g21
((dp1072
I01
I1182
sNI2813
stp1073
Rp1074
sg25
I2
sg26
F3996.0
sbs(g9
g438
tp1075
g0
(g14
g2
Ntp1076
Rp1077
(dp1078
g18
F0.5
sg19
I3995
sg20
g21
((dp1079
I01
I593
sNI3402
stp1080
Rp1081
sg25
I2
sg26
F3996.0
sbs(g9
g153
tp1082
g0
(g14
g2
Ntp1083
Rp1084
(dp1085
g18
F0.5
sg19
I3995
sg20
g21
((dp1086
I01
I2042
sNI1953
stp1087
Rp1088
sg25
I2
sg26
F3996.0
sbs(g9
g35
tp1089
g0
(g14
g2
Ntp1090
Rp1091
(dp1092
g18
F0.5
sg19
I3995
sg20
g21
((dp1093
I01
I3811
sNI184
stp1094
Rp1095
sg25
I2
sg26
F3996.0
sbs(g8
g320
tp1096
g0
(g14
g2
Ntp1097
Rp1098
(dp1099
g18
F0.5
sg19
I3091
sg20
g21
((dp1100
I01
I1487
sNI1604
stp1101
Rp1102
sg25
I2
sg26
F3092.0
sbs(g9
g177
tp1103
g0
(g14
g2
Ntp1104
Rp1105
(dp1106
g18
F0.5
sg19
I3995
sg20
g21
((dp1107
I01
I2425
sNI1570
stp1108
Rp1109
sg25
I2
sg26
F3996.0
sbs(g8
S'\x9d'
p1110
tp1111
g0
(g14
g2
Ntp1112
Rp1113
(dp1114
g18
F0.5
sg19
I3091
sg20
g21
((dp1115
I01
I3
sNI3088
stp1116
Rp1117
sg25
I2
sg26
F3092.0
sbs(g9
g1110
tp1118
g0
(g14
g2
Ntp1119
Rp1120
(dp1121
g18
F0.5
sg19
I3995
sg20
g21
((dp1122
I01
I2
sNI3993
stp1123
Rp1124
sg25
I2
sg26
F3996.0
sbs(g9
g201
tp1125
g0
(g14
g2
Ntp1126
Rp1127
(dp1128
g18
F0.5
sg19
I3995
sg20
g21
((dp1129
NI3995
stp1130
Rp1131
sg25
I2
sg26
F3996.0
sbs(g9
g90
tp1132
g0
(g14
g2
Ntp1133
Rp1134
(dp1135
g18
F0.5
sg19
I3995
sg20
g21
((dp1136
I01
I6
sNI3989
stp1137
Rp1138
sg25
I2
sg26
F3996.0
sbs(g8
g352
tp1139
g0
(g14
g2
Ntp1140
Rp1141
(dp1142
g18
F0.5
sg19
I3091
sg20
g21
((dp1143
I01
I3065
sNI26
stp1144
Rp1145
sg25
I2
sg26
F3092.0
sbs(g9
g233
tp1146
g0
(g14
g2
Ntp1147
Rp1148
(dp1149
g18
F0.5
sg19
I3995
sg20
g21
((dp1150
I01
I3
sNI3992
stp1151
Rp1152
sg25
I2
sg26
F3996.0
sbs(g8
g113
tp1153
g0
(g14
g2
Ntp1154
Rp1155
(dp1156
g18
F0.5
sg19
I3091
sg20
g21
((dp1157
I01
I209
sNI2882
stp1158
Rp1159
sg25
I2
sg26
F3092.0
sbs(g9
g1039
tp1160
g0
(g14
g2
Ntp1161
Rp1162
(dp1163
g18
F0.5
sg19
I3995
sg20
g21
((dp1164
I01
I10
sNI3985
stp1165
Rp1166
sg25
I2
sg26
F3996.0
sbs(g8
g264
tp1167
g0
(g14
g2
Ntp1168
Rp1169
(dp1170
g18
F0.5
sg19
I3091
sg20
g21
((dp1171
I01
I3
sNI3088
stp1172
Rp1173
sg25
I2
sg26
F3092.0
sbs(g8
S':'
p1174
tp1175
g0
(g14
g2
Ntp1176
Rp1177
(dp1178
g18
F0.5
sg19
I3091
sg20
g21
((dp1179
I01
I99
sNI2992
stp1180
Rp1181
sg25
I2
sg26
F3092.0
sbs(g9
S'#'
p1182
tp1183
g0
(g14
g2
Ntp1184
Rp1185
(dp1186
g18
F0.5
sg19
I3995
sg20
g21
((dp1187
I01
I1
sNI3994
stp1188
Rp1189
sg25
I2
sg26
F3996.0
sbs(g8
g129
tp1190
g0
(g14
g2
Ntp1191
Rp1192
(dp1193
g18
F0.5
sg19
I3091
sg20
g21
((dp1194
NI3091
stp1195
Rp1196
sg25
I2
sg26
F3092.0
sbs(g9
g538
tp1197
g0
(g14
g2
Ntp1198
Rp1199
(dp1200
g18
F0.5
sg19
I3995
sg20
g21
((dp1201
I01
I4
sNI3991
stp1202
Rp1203
sg25
I2
sg26
F3996.0
sbs(g8
g1182
tp1204
g0
(g14
g2
Ntp1205
Rp1206
(dp1207
g18
F0.5
sg19
I3091
sg20
g21
((dp1208
NI3091
stp1209
Rp1210
sg25
I2
sg26
F3092.0
sbs(g9
g414
tp1211
g0
(g14
g2
Ntp1212
Rp1213
(dp1214
g18
F0.5
sg19
I3995
sg20
g21
((dp1215
I01
I3
sNI3992
stp1216
Rp1217
sg25
I2
sg26
F3996.0
sbs(g8
g296
tp1218
g0
(g14
g2
Ntp1219
Rp1220
(dp1221
g18
F0.5
sg19
I3091
sg20
g21
((dp1222
I01
I1159
sNI1932
stp1223
Rp1224
sg25
I2
sg26
F3092.0
sbs(g8
S'('
p1225
tp1226
g0
(g14
g2
Ntp1227
Rp1228
(dp1229
g18
F0.5
sg19
I3091
sg20
g21
((dp1230
I01
I29
sNI3062
stp1231
Rp1232
sg25
I2
sg26
F3092.0
sbs(g9
g569
tp1233
g0
(g14
g2
Ntp1234
Rp1235
(dp1236
g18
F0.5
sg19
I3995
sg20
g21
((dp1237
I01
I2
sNI3993
stp1238
Rp1239
sg25
I2
sg26
F3996.0
sbs(g9
S'F'
p1240
tp1241
g0
(g14
g2
Ntp1242
Rp1243
(dp1244
g18
F0.5
sg19
I3995
sg20
g21
((dp1245
I01
I21
sNI3974
stp1246
Rp1247
sg25
I2
sg26
F3996.0
sbs(g8
g607
tp1248
g0
(g14
g2
Ntp1249
Rp1250
(dp1251
g18
F0.5
sg19
I3091
sg20
g21
((dp1252
NI3091
stp1253
Rp1254
sg25
I2
sg26
F3092.0
sbs(g9
g344
tp1255
g0
(g14
g2
Ntp1256
Rp1257
(dp1258
g18
F0.5
sg19
I3995
sg20
g21
((dp1259
I01
I3280
sNI715
stp1260
Rp1261
sg25
I2
sg26
F3996.0
sbs(g9
g193
tp1262
g0
(g14
g2
Ntp1263
Rp1264
(dp1265
g18
F0.5
sg19
I3995
sg20
g21
((dp1266
I01
I2543
sNI1452
stp1267
Rp1268
sg25
I2
sg26
F3996.0
sbs(g9
g691
tp1269
g0
(g14
g2
Ntp1270
Rp1271
(dp1272
g18
F0.5
sg19
I3995
sg20
g21
((dp1273
NI3995
stp1274
Rp1275
sg25
I2
sg26
F3996.0
sbs(g8
g500
tp1276
g0
(g14
g2
Ntp1277
Rp1278
(dp1279
g18
F0.5
sg19
I3091
sg20
g21
((dp1280
I01
I2786
sNI305
stp1281
Rp1282
sg25
I2
sg26
F3092.0
sbs(g9
S'b'
p1283
tp1284
g0
(g14
g2
Ntp1285
Rp1286
(dp1287
g18
F0.5
sg19
I3995
sg20
g21
((dp1288
I01
I2534
sNI1461
stp1289
Rp1290
sg25
I2
sg26
F3996.0
sbs(g8
g225
tp1291
g0
(g14
g2
Ntp1292
Rp1293
(dp1294
g18
F0.5
sg19
I3091
sg20
g21
((dp1295
I01
I1
sNI3090
stp1296
Rp1297
sg25
I2
sg26
F3092.0
sbs(g8
g1283
tp1298
g0
(g14
g2
Ntp1299
Rp1300
(dp1301
g18
F0.5
sg19
I3091
sg20
g21
((dp1302
I01
I1848
sNI1243
stp1303
Rp1304
sg25
I2
sg26
F3092.0
sbs(g9
g1174
tp1305
g0
(g14
g2
Ntp1306
Rp1307
(dp1308
g18
F0.5
sg19
I3995
sg20
g21
((dp1309
I01
I105
sNI3890
stp1310
Rp1311
sg25
I2
sg26
F3996.0
sbs(g8
S'k'
p1312
tp1313
g0
(g14
g2
Ntp1314
Rp1315
(dp1316
g18
F0.5
sg19
I3091
sg20
g21
((dp1317
I01
I2719
sNI372
stp1318
Rp1319
sg25
I2
sg26
F3092.0
sbs(g9
S'3'
p1320
tp1321
g0
(g14
g2
Ntp1322
Rp1323
(dp1324
g18
F0.5
sg19
I3995
sg20
g21
((dp1325
I01
I248
sNI3747
stp1326
Rp1327
sg25
I2
sg26
F3996.0
sbs(g8
g288
tp1328
g0
(g14
g2
Ntp1329
Rp1330
(dp1331
g18
F0.5
sg19
I3091
sg20
g21
((dp1332
I01
I1016
sNI2075
stp1333
Rp1334
sg25
I2
sg26
F3092.0
sbs(g8
g1320
tp1335
g0
(g14
g2
Ntp1336
Rp1337
(dp1338
g18
F0.5
sg19
I3091
sg20
g21
((dp1339
I01
I31
sNI3060
stp1340
Rp1341
sg25
I2
sg26
F3092.0
sbs(g9
g1225
tp1342
g0
(g14
g2
Ntp1343
Rp1344
(dp1345
g18
F0.5
sg19
I3995
sg20
g21
((dp1346
I01
I108
sNI3887
stp1347
Rp1348
sg25
I2
sg26
F3996.0
sbs(g8
g461
tp1349
g0
(g14
g2
Ntp1350
Rp1351
(dp1352
g18
F0.5
sg19
I3091
sg20
g21
((dp1353
I01
I22
sNI3069
stp1354
Rp1355
sg25
I2
sg26
F3092.0
sbs(g8
g304
tp1356
g0
(g14
g2
Ntp1357
Rp1358
(dp1359
g18
F0.5
sg19
I3091
sg20
g21
((dp1360
NI3091
stp1361
Rp1362
sg25
I2
sg26
F3092.0
sbs(g8
S'8'
p1363
tp1364
g0
(g14
g2
Ntp1365
Rp1366
(dp1367
g18
F0.5
sg19
I3091
sg20
g21
((dp1368
I01
I1
sNI3090
stp1369
Rp1370
sg25
I2
sg26
F3092.0
sbs(g9
S'!'
p1371
tp1372
g0
(g14
g2
Ntp1373
Rp1374
(dp1375
g18
F0.5
sg19
I3995
sg20
g21
((dp1376
I01
I874
sNI3121
stp1377
Rp1378
sg25
I2
sg26
F3996.0
sbs(g8
g1240
tp1379
g0
(g14
g2
Ntp1380
Rp1381
(dp1382
g18
F0.5
sg19
I3091
sg20
g21
((dp1383
I01
I17
sNI3074
stp1384
Rp1385
sg25
I2
sg26
F3092.0
sbs(g8
g1371
tp1386
g0
(g14
g2
Ntp1387
Rp1388
(dp1389
g18
F0.5
sg19
I3091
sg20
g21
((dp1390
I01
I224
sNI2867
stp1391
Rp1392
sg25
I2
sg26
F3092.0
sbs(g9
S'V'
p1393
tp1394
g0
(g14
g2
Ntp1395
Rp1396
(dp1397
g18
F0.5
sg19
I3995
sg20
g21
((dp1398
I01
I1155
sNI2840
stp1399
Rp1400
sg25
I2
sg26
F3996.0
sbs(g8
S'O'
p1401
tp1402
g0
(g14
g2
Ntp1403
Rp1404
(dp1405
g18
F0.5
sg19
I3091
sg20
g21
((dp1406
I01
I291
sNI2800
stp1407
Rp1408
sg25
I2
sg26
F3092.0
sbs(g8
g328
tp1409
g0
(g14
g2
Ntp1410
Rp1411
(dp1412
g18
F0.5
sg19
I3091
sg20
g21
((dp1413
I01
I86
sNI3005
stp1414
Rp1415
sg25
I2
sg26
F3092.0
sbs(g8
g788
tp1416
g0
(g14
g2
Ntp1417
Rp1418
(dp1419
g18
F0.5
sg19
I3091
sg20
g21
((dp1420
I01
I2877
sNI214
stp1421
Rp1422
sg25
I2
sg26
F3092.0
sbs(g9
g1401
tp1423
g0
(g14
g2
Ntp1424
Rp1425
(dp1426
g18
F0.5
sg19
I3995
sg20
g21
((dp1427
I01
I669
sNI3326
stp1428
Rp1429
sg25
I2
sg26
F3996.0
sbs(g9
g637
tp1430
g0
(g14
g2
Ntp1431
Rp1432
(dp1433
g18
F0.5
sg19
I3995
sg20
g21
((dp1434
I01
I2
sNI3993
stp1435
Rp1436
sg25
I2
sg26
F3996.0
sbs(g9
S'D'
p1437
tp1438
g0
(g14
g2
Ntp1439
Rp1440
(dp1441
g18
F0.5
sg19
I3995
sg20
g21
((dp1442
I01
I976
sNI3019
stp1443
Rp1444
sg25
I2
sg26
F3996.0
sbs(g8
g826
tp1445
g0
(g14
g2
Ntp1446
Rp1447
(dp1448
g18
F0.5
sg19
I3091
sg20
g21
((dp1449
NI3091
stp1450
Rp1451
sg25
I2
sg26
F3092.0
sbs(g9
S'r'
p1452
tp1453
g0
(g14
g2
Ntp1454
Rp1455
(dp1456
g18
F0.5
sg19
I3995
sg20
g21
((dp1457
I01
I3033
sNI962
stp1458
Rp1459
sg25
I2
sg26
F3996.0
sbs(g8
g376
tp1460
g0
(g14
g2
Ntp1461
Rp1462
(dp1463
g18
F0.5
sg19
I3091
sg20
g21
((dp1464
NI3091
stp1465
Rp1466
sg25
I2
sg26
F3092.0
sbs(g8
g1452
tp1467
g0
(g14
g2
Ntp1468
Rp1469
(dp1470
g18
F0.5
sg19
I3091
sg20
g21
((dp1471
I01
I2385
sNI706
stp1472
Rp1473
sg25
I2
sg26
F3092.0
sbs(g9
g1312
tp1474
g0
(g14
g2
Ntp1475
Rp1476
(dp1477
g18
F0.5
sg19
I3995
sg20
g21
((dp1478
I01
I2240
sNI1755
stp1479
Rp1480
sg25
I2
sg26
F3996.0
sbs(g9
g736
tp1481
g0
(g14
g2
Ntp1482
Rp1483
(dp1484
g18
F0.5
sg19
I3995
sg20
g21
((dp1485
I01
I5
sNI3990
stp1486
Rp1487
sg25
I2
sg26
F3996.0
sbs(g9
S'\xa2'
p1488
tp1489
g0
(g14
g2
Ntp1490
Rp1491
(dp1492
g18
F0.5
sg19
I3995
sg20
g21
((dp1493
NI3995
stp1494
Rp1495
sg25
I2
sg26
F3996.0
sbs(g9
g446
tp1496
g0
(g14
g2
Ntp1497
Rp1498
(dp1499
g18
F0.5
sg19
I3995
sg20
g21
((dp1500
I01
I2
sNI3993
stp1501
Rp1502
sg25
I2
sg26
F3996.0
sbs(g9
g1363
tp1503
g0
(g14
g2
Ntp1504
Rp1505
(dp1506
g18
F0.5
sg19
I3995
sg20
g21
((dp1507
I01
I5
sNI3990
stp1508
Rp1509
sg25
I2
sg26
F3996.0
sbs(g8
S'i'
p1510
tp1511
g0
(g14
g2
Ntp1512
Rp1513
(dp1514
g18
F0.5
sg19
I3091
sg20
g21
((dp1515
I01
I2830
sNI261
stp1516
Rp1517
sg25
I2
sg26
F3092.0
sbs(g8
g1488
tp1518
g0
(g14
g2
Ntp1519
Rp1520
(dp1521
g18
F0.5
sg19
I3091
sg20
g21
((dp1522
I01
I1
sNI3090
stp1523
Rp1524
sg25
I2
sg26
F3092.0
sbs(g9
S'1'
p1525
tp1526
g0
(g14
g2
Ntp1527
Rp1528
(dp1529
g18
F0.5
sg19
I3995
sg20
g21
((dp1530
I01
I9
sNI3986
stp1531
Rp1532
sg25
I2
sg26
F3996.0
sbs(g8
g1393
tp1533
g0
(g14
g2
Ntp1534
Rp1535
(dp1536
g18
F0.5
sg19
I3091
sg20
g21
((dp1537
I01
I867
sNI2224
stp1538
Rp1539
sg25
I2
sg26
F3092.0
sbs(g8
g1525
tp1540
g0
(g14
g2
Ntp1541
Rp1542
(dp1543
g18
F0.5
sg19
I3091
sg20
g21
((dp1544
I01
I7
sNI3084
stp1545
Rp1546
sg25
I2
sg26
F3092.0
sbs(g9
g645
tp1547
g0
(g14
g2
Ntp1548
Rp1549
(dp1550
g18
F0.5
sg19
I3995
sg20
g21
((dp1551
I01
I8
sNI3987
stp1552
Rp1553
sg25
I2
sg26
F3996.0
sbs(g8
S'_'
p1554
tp1555
g0
(g14
g2
Ntp1556
Rp1557
(dp1558
g18
F0.5
sg19
I3091
sg20
g21
((dp1559
I01
I1
sNI3090
stp1560
Rp1561
sg25
I2
sg26
F3092.0
sbs(g8
g951
tp1562
g0
(g14
g2
Ntp1563
Rp1564
(dp1565
g18
F0.5
sg19
I3091
sg20
g21
((dp1566
I01
I4
sNI3087
stp1567
Rp1568
sg25
I2
sg26
F3092.0
sbs(g9
g1554
tp1569
g0
(g14
g2
Ntp1570
Rp1571
(dp1572
g18
F0.5
sg19
I3995
sg20
g21
((dp1573
I01
I1
sNI3994
stp1574
Rp1575
sg25
I2
sg26
F3996.0
sbs(g8
g1437
tp1576
g0
(g14
g2
Ntp1577
Rp1578
(dp1579
g18
F0.5
sg19
I3091
sg20
g21
((dp1580
I01
I888
sNI2203
stp1581
Rp1582
sg25
I2
sg26
F3092.0
sbs(g9
g683
tp1583
g0
(g14
g2
Ntp1584
Rp1585
(dp1586
g18
F0.5
sg19
I3995
sg20
g21
((dp1587
NI3995
stp1588
Rp1589
sg25
I2
sg26
F3996.0
sbs(g8
g810
tp1590
g0
(g14
g2
Ntp1591
Rp1592
(dp1593
g18
F0.5
sg19
I3091
sg20
g21
((dp1594
I01
I257
sNI2834
stp1595
Rp1596
sg25
I2
sg26
F3092.0
sbs(g9
g58
tp1597
g0
(g14
g2
Ntp1598
Rp1599
(dp1600
g18
F0.5
sg19
I3995
sg20
g21
((dp1601
I01
I782
sNI3213
stp1602
Rp1603
sg25
I2
sg26
F3996.0
sbs(g8
S'M'
p1604
tp1605
g0
(g14
g2
Ntp1606
Rp1607
(dp1608
g18
F0.5
sg19
I3091
sg20
g21
((dp1609
I01
I958
sNI2133
stp1610
Rp1611
sg25
I2
sg26
F3092.0
sbs(g8
g980
tp1612
g0
(g14
g2
Ntp1613
Rp1614
(dp1615
g18
F0.5
sg19
I3091
sg20
g21
((dp1616
I01
I1333
sNI1758
stp1617
Rp1618
sg25
I2
sg26
F3092.0
sbs(g9
g1604
tp1619
g0
(g14
g2
Ntp1620
Rp1621
(dp1622
g18
F0.5
sg19
I3995
sg20
g21
((dp1623
I01
I1505
sNI2490
stp1624
Rp1625
sg25
I2
sg26
F3996.0
sbs(g9
S'\xa3'
p1626
tp1627
g0
(g14
g2
Ntp1628
Rp1629
(dp1630
g18
F0.5
sg19
I3995
sg20
g21
((dp1631
I01
I1
sNI3994
stp1632
Rp1633
sg25
I2
sg26
F3996.0
sbs(g9
g1002
tp1634
g0
(g14
g2
Ntp1635
Rp1636
(dp1637
g18
F0.5
sg19
I3995
sg20
g21
((dp1638
I01
I899
sNI3096
stp1639
Rp1640
sg25
I2
sg26
F3996.0
sbs(g8
g1626
tp1641
g0
(g14
g2
Ntp1642
Rp1643
(dp1644
g18
F0.5
sg19
I3091
sg20
g21
((dp1645
NI3091
stp1646
Rp1647
sg25
I2
sg26
F3092.0
sbs(g9
S'p'
p1648
tp1649
g0
(g14
g2
Ntp1650
Rp1651
(dp1652
g18
F0.5
sg19
I3995
sg20
g21
((dp1653
I01
I1504
sNI2491
stp1654
Rp1655
sg25
I2
sg26
F3996.0
sbs(g8
g1648
tp1656
g0
(g14
g2
Ntp1657
Rp1658
(dp1659
g18
F0.5
sg19
I3091
sg20
g21
((dp1660
I01
I1219
sNI1872
stp1661
Rp1662
sg25
I2
sg26
F3092.0
sbs(g9
g1510
tp1663
g0
(g14
g2
Ntp1664
Rp1665
(dp1666
g18
F0.5
sg19
I3995
sg20
g21
((dp1667
I01
I3596
sNI399
stp1668
Rp1669
sg25
I2
sg26
F3996.0
sbs(g8
g137
tp1670
g0
(g14
g2
Ntp1671
Rp1672
(dp1673
g18
F0.5
sg19
I3091
sg20
g21
((dp1674
I01
I1765
sNI1326
stp1675
Rp1676
sg25
I2
sg26
F3092.0
sbs(g8
g936
tp1677
g0
(g14
g2
Ntp1678
Rp1679
(dp1680
g18
F0.5
sg19
I3091
sg20
g21
((dp1681
I01
I854
sNI2237
stp1682
Rp1683
sg25
I2
sg26
F3092.0
sbssS'_label_probdist'
p1684
g0
(g14
g2
Ntp1685
Rp1686
(dp1687
g18
F0.5
sg19
I7086
sg20
g21
((dp1688
g8
I3091
sg9
I3995
stp1689
Rp1690
sg25
I2
sg26
F7087.0
sbsb.